(dp0
Vengine
p1
S'pdflatex'
p2
sVpackages
p3
c__builtin__
set
p4
((lp5
Vurl
p6
aVhyperref
p7
aVlistings
p8
aVgraphicx
p9
atp10
Rp11
sVfiles_with_guttermarks
p12
g4
((lp13
V/Users/kuiw/Desktop/processbook/./dEvolution.tex
p14
aV/Users/kuiw/Downloads/NewProcessBook/./evaluation.tex
p15
aS'processbook.tex'
p16
aV/Users/kuiw/Desktop/processbook/dEvolution.tex
p17
atp18
Rp19
sVsynctex
p20
I01
s.